target datalayout = "e-m:e-p270:32:32-p271:32:32-p272:64:64-i64:64-i128:128-f80:128-n8:16:32:64-S128"
target triple = "x86_64-pc-linux-gnu"

%struct.slurm_conf_t = type { i64, ptr, i16, ptr, ptr, ptr, ptr, ptr, i16, ptr, ptr, ptr, ptr, ptr, ptr, ptr, i16, ptr, ptr, ptr, ptr, i16, ptr, ptr, ptr, i64, ptr, ptr, ptr, ptr, i16, ptr, ptr, i16, i32, ptr, i32, ptr, i32, i32, ptr, ptr, i64, i64, ptr, i16, i16, ptr, i32, i32, ptr, i32, ptr, i32, i16, i16, i16, ptr, i16, i16, ptr, ptr, i32, i16, i16, ptr, i32, i16, ptr, ptr, ptr, ptr, i16, ptr, ptr, ptr, ptr, i32, ptr, ptr, ptr, ptr, i16, i16, ptr, i32, i32, i32, i16, i16, ptr, ptr, i16, ptr, ptr, i32, i32, i32, i32, i32, i64, i32, i32, i16, ptr, ptr, i32, ptr, ptr, ptr, i16, i32, ptr, ptr, i16, ptr, ptr, i32, i16, ptr, ptr, ptr, ptr, i32, i32, i16, i16, i32, ptr, i16, ptr, i32, i32, i32, i32, i32, i32, ptr, i16, ptr, ptr, i32, i16, ptr, i32, i16, i16, ptr, ptr, ptr, i16, ptr, ptr, ptr, ptr, i16, i16, ptr, i16, ptr, i16, ptr, i16, ptr, i16, ptr, ptr, ptr, ptr, i16, ptr, ptr, ptr, i32, ptr, i32, ptr, ptr, i16, ptr, ptr, i32, i16, ptr, ptr, i16, i16, ptr, i16, ptr, ptr, ptr, i32, ptr, i16, i16, ptr, ptr, ptr, ptr, ptr, ptr, ptr, ptr, i16, i32, i16, ptr, ptr, ptr, ptr, i32, ptr, ptr, ptr, i16, ptr, ptr, ptr, i16, ptr, i16, ptr, i16, i16, ptr }
%union.pthread_mutex_t = type { %struct.__pthread_mutex_s }
%struct.__pthread_mutex_s = type { i32, i32, i32, i32, i32, i16, i16, %struct.__pthread_internal_list }
%struct.__pthread_internal_list = type { ptr, ptr }
%struct.slurmdbd_conn_t = type { ptr, ptr, %union.pthread_mutex_t, ptr, ptr }
%struct.persist_conn_t = type { ptr, i32, i32, i8, ptr, ptr, ptr, i64, i16, i32, i16, i8, i32, i32, ptr, i16, ptr, i64, i32, ptr, %struct.slurm_trigger_callbacks_t, i16 }
%struct.slurm_trigger_callbacks_t = type { ptr, ptr, ptr, ptr, ptr }
%struct.persist_msg_t = type { ptr, ptr, i16 }
%struct.job_record = type { i32, ptr, ptr, ptr, ptr, i16, i32, i32, i32, ptr, i32, ptr, ptr, i16, ptr, double, i64, ptr, ptr, ptr, ptr, ptr, ptr, i32, ptr, i32, i64, i64, i32, i32, ptr, i16, i64, i64, i8, i32, ptr, ptr, ptr, ptr, ptr, ptr, ptr, ptr, i32, ptr, ptr, i32, ptr, i32, ptr, i32, ptr, i32, ptr, ptr, ptr, ptr, ptr, ptr, i32, i16, i64, ptr, ptr, ptr, ptr, %struct.acct_policy_limit_set_t, i16, ptr, ptr, ptr, ptr, ptr, i32, ptr, ptr, ptr, ptr, ptr, i32, i32, ptr, ptr, ptr, i16, ptr, ptr, i8, ptr, ptr, i64, i64, i8, i32, i32, i8, i32, ptr, i32, i64, i32, ptr, ptr, ptr, i8, i16, i64, i32, ptr, ptr, ptr, ptr, ptr, i16, i32, ptr, ptr, ptr, ptr, i32, ptr, i32, i16, i64, ptr, i32, i32, ptr, i64, ptr, ptr, i64, i32, i32, i64, i32, i32, ptr, ptr, ptr, ptr, ptr, ptr, ptr, ptr, ptr, ptr, ptr, ptr, i32, ptr, i16, i16, i16, i16, ptr, i32, i32, i8, i64 }
%struct.acct_policy_limit_set_t = type { i16, i16, ptr }
%struct.job_details_t = type { i32, ptr, i64, ptr, i32, ptr, i64, ptr, i16, i16, ptr, i16, i32, i32, i32, i16, ptr, i16, ptr, ptr, ptr, i16, ptr, ptr, ptr, ptr, i32, ptr, ptr, ptr, ptr, ptr, i32, i32, i32, ptr, ptr, i16, i32, i32, i32, i32, i32, i32, i16, i16, i32, i8, i8, i32, i32, i64, i64, i16, i32, ptr, ptr, i8, ptr, i32, ptr, i64, ptr, ptr, i16, i16, i16, i8, ptr, ptr, ptr, ptr, ptr, ptr, i64, i32, i32, i8, ptr, i16, ptr, ptr, i16 }
%struct.dbd_job_suspend_msg = type { i32, i64, i32, i32, i64, i64 }

@slurm_conf = external global %struct.slurm_conf_t, align 8
@.str.86 = private unnamed_addr constant [14 x i8] c"CONN:%d %s %u\00", align 1
@.str.99 = private unnamed_addr constant [41 x i8] c"DBD_JOB_SUSPEND message from invalid uid\00", align 1
@.str.100 = private unnamed_addr constant [32 x i8] c"DBD_JOB_SUSPEND: ID:%u STATE:%s\00", align 1

; Function Attrs: nounwind uwtable
define internal zeroext i1 @_validate_slurm_user(ptr noundef %0) #0 {
  %2 = alloca i1, align 1
  %3 = alloca ptr, align 8
  %4 = alloca i32, align 4
  %5 = alloca i32, align 4
  store ptr %0, ptr %3, align 8
  call void @llvm.lifetime.start.p0(i64 4, ptr %4) #8
  %6 = load ptr, ptr %3, align 8
  %7 = getelementptr inbounds nuw %struct.slurmdbd_conn_t, ptr %6, i32 0, i32 0
  %8 = load ptr, ptr %7, align 8
  %9 = getelementptr inbounds nuw %struct.persist_conn_t, ptr %8, i32 0, i32 1
  %10 = load i32, ptr %9, align 8
  store i32 %10, ptr %4, align 4
  %11 = load i32, ptr %4, align 4
  %12 = icmp eq i32 %11, 0
  br i1 %12, label %17, label %13

13:                                               ; preds = %1
  %14 = load i32, ptr %4, align 4
  %15 = load i32, ptr getelementptr inbounds nuw (%struct.slurm_conf_t, ptr @slurm_conf, i32 0, i32 173), align 8
  %16 = icmp eq i32 %14, %15
  br i1 %16, label %17, label %18

17:                                               ; preds = %13, %1
  store i1 true, ptr %2, align 1
  store i32 1, ptr %5, align 4
  br label %19

18:                                               ; preds = %13
  store i1 false, ptr %2, align 1
  store i32 1, ptr %5, align 4
  br label %19

19:                                               ; preds = %18, %17
  call void @llvm.lifetime.end.p0(i64 4, ptr %4) #8
  %20 = load i1, ptr %2, align 1
  ret i1 %20
}

; Function Attrs: nounwind uwtable
define internal i32 @_job_suspend(ptr noundef %0, ptr noundef %1, ptr noundef %2) #0 {
  %4 = alloca ptr, align 8
  %5 = alloca ptr, align 8
  %6 = alloca ptr, align 8
  %7 = alloca ptr, align 8
  %8 = alloca %struct.job_record, align 8
  %9 = alloca %struct.job_details_t, align 8
  %10 = alloca i32, align 4
  %11 = alloca ptr, align 8
  store ptr %0, ptr %4, align 8
  store ptr %1, ptr %5, align 8
  store ptr %2, ptr %6, align 8
  call void @llvm.lifetime.start.p0(i64 8, ptr %7) #8
  %12 = load ptr, ptr %5, align 8
  %13 = getelementptr inbounds nuw %struct.persist_msg_t, ptr %12, i32 0, i32 1
  %14 = load ptr, ptr %13, align 8
  store ptr %14, ptr %7, align 8
  call void @llvm.lifetime.start.p0(i64 1152, ptr %8) #8
  call void @llvm.lifetime.start.p0(i64 528, ptr %9) #8
  call void @llvm.lifetime.start.p0(i64 4, ptr %10) #8
  store i32 0, ptr %10, align 4
  call void @llvm.lifetime.start.p0(i64 8, ptr %11) #8
  store ptr null, ptr %11, align 8
  %15 = load ptr, ptr %4, align 8
  %16 = call zeroext i1 @_validate_slurm_user(ptr noundef %15)
  br i1 %16, label %30, label %17

17:                                               ; preds = %3
  store ptr @.str.99, ptr %11, align 8
  %18 = load ptr, ptr %4, align 8
  %19 = getelementptr inbounds nuw %struct.slurmdbd_conn_t, ptr %18, i32 0, i32 0
  %20 = load ptr, ptr %19, align 8
  %21 = getelementptr inbounds nuw %struct.persist_conn_t, ptr %20, i32 0, i32 9
  %22 = load i32, ptr %21, align 4
  %23 = load ptr, ptr %11, align 8
  %24 = load ptr, ptr %4, align 8
  %25 = getelementptr inbounds nuw %struct.slurmdbd_conn_t, ptr %24, i32 0, i32 0
  %26 = load ptr, ptr %25, align 8
  %27 = getelementptr inbounds nuw %struct.persist_conn_t, ptr %26, i32 0, i32 1
  %28 = load i32, ptr %27, align 8
  %29 = call i32 (ptr, ...) @error(ptr noundef @.str.86, i32 noundef %22, ptr noundef %23, i32 noundef %28)
  store i32 2002, ptr %10, align 4
  br label %98

30:                                               ; preds = %3
  br label %31

31:                                               ; preds = %30
  br label %32

32:                                               ; preds = %31
  %33 = call i32 @get_log_level()
  %34 = icmp sge i32 %33, 6
  br i1 %34, label %35, label %43

35:                                               ; preds = %32
  %36 = load ptr, ptr %7, align 8
  %37 = getelementptr inbounds nuw %struct.dbd_job_suspend_msg, ptr %36, i32 0, i32 2
  %38 = load i32, ptr %37, align 8
  %39 = load ptr, ptr %7, align 8
  %40 = getelementptr inbounds nuw %struct.dbd_job_suspend_msg, ptr %39, i32 0, i32 3
  %41 = load i32, ptr %40, align 4
  %42 = call ptr @job_state_string(i32 noundef %41)
  call void (i32, ptr, ...) @log_var(i32 noundef 6, ptr noundef @.str.100, i32 noundef %38, ptr noundef %42)
  br label %43

43:                                               ; preds = %35, %32
  br label %44

44:                                               ; preds = %43
  br label %45

45:                                               ; preds = %44
  br label %46

46:                                               ; preds = %45
  br label %47

47:                                               ; preds = %46
  call void @llvm.memset.p0.i64(ptr align 8 %8, i8 0, i64 1152, i1 false)
  call void @llvm.memset.p0.i64(ptr align 8 %9, i8 0, i64 528, i1 false)
  %48 = load ptr, ptr %7, align 8
  %49 = getelementptr inbounds nuw %struct.dbd_job_suspend_msg, ptr %48, i32 0, i32 0
  %50 = load i32, ptr %49, align 8
  %51 = getelementptr inbounds nuw %struct.job_record, ptr %8, i32 0, i32 10
  store i32 %50, ptr %51, align 8
  %52 = load ptr, ptr %7, align 8
  %53 = getelementptr inbounds nuw %struct.dbd_job_suspend_msg, ptr %52, i32 0, i32 1
  %54 = load i64, ptr %53, align 8
  %55 = icmp ne i64 %54, -2
  br i1 %55, label %56, label %61

56:                                               ; preds = %47
  %57 = load ptr, ptr %7, align 8
  %58 = getelementptr inbounds nuw %struct.dbd_job_suspend_msg, ptr %57, i32 0, i32 1
  %59 = load i64, ptr %58, align 8
  %60 = getelementptr inbounds nuw %struct.job_record, ptr %8, i32 0, i32 26
  store i64 %59, ptr %60, align 8
  br label %61

61:                                               ; preds = %56, %47
  %62 = load ptr, ptr %7, align 8
  %63 = getelementptr inbounds nuw %struct.dbd_job_suspend_msg, ptr %62, i32 0, i32 2
  %64 = load i32, ptr %63, align 8
  %65 = getelementptr inbounds nuw %struct.job_record, ptr %8, i32 0, i32 53
  store i32 %64, ptr %65, align 8
  %66 = load ptr, ptr %7, align 8
  %67 = getelementptr inbounds nuw %struct.dbd_job_suspend_msg, ptr %66, i32 0, i32 3
  %68 = load i32, ptr %67, align 4
  %69 = getelementptr inbounds nuw %struct.job_record, ptr %8, i32 0, i32 60
  store i32 %68, ptr %69, align 8
  %70 = load ptr, ptr %7, align 8
  %71 = getelementptr inbounds nuw %struct.dbd_job_suspend_msg, ptr %70, i32 0, i32 4
  %72 = load i64, ptr %71, align 8
  %73 = getelementptr inbounds nuw %struct.job_details_t, ptr %9, i32 0, i32 74
  store i64 %72, ptr %73, align 8
  %74 = load ptr, ptr %4, align 8
  %75 = getelementptr inbounds nuw %struct.slurmdbd_conn_t, ptr %74, i32 0, i32 0
  %76 = load ptr, ptr %75, align 8
  %77 = getelementptr inbounds nuw %struct.persist_conn_t, ptr %76, i32 0, i32 21
  %78 = load i16, ptr %77, align 8
  %79 = getelementptr inbounds nuw %struct.job_record, ptr %8, i32 0, i32 123
  store i16 %78, ptr %79, align 4
  %80 = load ptr, ptr %7, align 8
  %81 = getelementptr inbounds nuw %struct.dbd_job_suspend_msg, ptr %80, i32 0, i32 5
  %82 = load i64, ptr %81, align 8
  %83 = getelementptr inbounds nuw %struct.job_record, ptr %8, i32 0, i32 129
  store i64 %82, ptr %83, align 8
  %84 = getelementptr inbounds nuw %struct.job_record, ptr %8, i32 0, i32 30
  store ptr %9, ptr %84, align 8
  %85 = load ptr, ptr %4, align 8
  %86 = getelementptr inbounds nuw %struct.slurmdbd_conn_t, ptr %85, i32 0, i32 3
  %87 = load ptr, ptr %86, align 8
  %88 = call i32 @jobacct_storage_g_job_suspend(ptr noundef %87, ptr noundef %8)
  store i32 %88, ptr %10, align 4
  %89 = load i32, ptr %10, align 4
  %90 = icmp ne i32 %89, 0
  br i1 %90, label %91, label %96

91:                                               ; preds = %61
  %92 = call ptr @__errno_location() #10
  %93 = load i32, ptr %92, align 4
  %94 = icmp eq i32 %93, 740
  br i1 %94, label %95, label %96

95:                                               ; preds = %91
  store i32 0, ptr %10, align 4
  br label %96

96:                                               ; preds = %95, %91, %61
  %97 = getelementptr inbounds nuw %struct.job_record, ptr %8, i32 0, i32 156
  call void @slurm_xfree(ptr noundef %97)
  br label %98

98:                                               ; preds = %96, %17
  %99 = load ptr, ptr %4, align 8
  %100 = getelementptr inbounds nuw %struct.slurmdbd_conn_t, ptr %99, i32 0, i32 0
  %101 = load ptr, ptr %100, align 8
  %102 = load i32, ptr %10, align 4
  %103 = load ptr, ptr %11, align 8
  %104 = call ptr @slurm_persist_make_rc_msg(ptr noundef %101, i32 noundef %102, ptr noundef %103, i16 noundef zeroext 1427)
  %105 = load ptr, ptr %6, align 8
  store ptr %104, ptr %105, align 8
  call void @llvm.lifetime.end.p0(i64 8, ptr %11) #8
  call void @llvm.lifetime.end.p0(i64 4, ptr %10) #8
  call void @llvm.lifetime.end.p0(i64 528, ptr %9) #8
  call void @llvm.lifetime.end.p0(i64 1152, ptr %8) #8
  call void @llvm.lifetime.end.p0(i64 8, ptr %7) #8
  ret i32 0
}