; Function Attrs: nounwind uwtable
define internal fastcc void @_job_suspend(ptr noundef readonly captures(none) %0, ptr readonly captures(none) %.8.val, ptr noundef writeonly captures(none) initializes((0, 8)) %1) unnamed_addr #0 {
  %3 = alloca %struct.job_record, align 8
  %4 = alloca %struct.job_details_t, align 8
  call void @llvm.lifetime.start.p0(i64 1152, ptr nonnull %3) #10
  call void @llvm.lifetime.start.p0(i64 528, ptr nonnull %4) #10
  %.val = load ptr, ptr %0, align 8
  %5 = getelementptr i8, ptr %.val, i64 8
  %.val.val = load i32, ptr %5, align 8
  %6 = icmp eq i32 %.val.val, 0
  %7 = load i32, ptr getelementptr inbounds nuw (i8, ptr @slurm_conf, i64 1152), align 8
  %8 = icmp eq i32 %.val.val, %7
  %or.cond.i = select i1 %6, i1 true, i1 %8
  br i1 %or.cond.i, label %13, label %9

9:                                                ; preds = %2
  %10 = getelementptr inbounds nuw i8, ptr %.val, i64 60
  %11 = load i32, ptr %10, align 4
  %12 = tail call i32 (ptr, ...) @error(ptr noundef nonnull @.str.86, i32 noundef %11, ptr noundef nonnull @.str.99, i32 noundef %.val.val) #10
  br label %56

13:                                               ; preds = %2
  %14 = tail call i32 @get_log_level() #10
  %15 = icmp sgt i32 %14, 5
  br i1 %15, label %16, label %22

16:                                               ; preds = %13
  %17 = getelementptr inbounds nuw i8, ptr %.8.val, i64 16
  %18 = load i32, ptr %17, align 8
  %19 = getelementptr inbounds nuw i8, ptr %.8.val, i64 20
  %20 = load i32, ptr %19, align 4
  %21 = tail call ptr @job_state_string(i32 noundef %20) #10
  tail call void (i32, ptr, ...) @log_var(i32 noundef 6, ptr noundef nonnull @.str.100, i32 noundef %18, ptr noundef %21) #10
  br label %22

22:                                               ; preds = %16, %13
  call void @llvm.memset.p0.i64(ptr noundef nonnull align 8 dereferenceable(1152) %3, i8 0, i64 1152, i1 false)
  call void @llvm.memset.p0.i64(ptr noundef nonnull align 8 dereferenceable(528) %4, i8 0, i64 528, i1 false)
  %23 = load i32, ptr %.8.val, align 8
  %24 = getelementptr inbounds nuw i8, ptr %3, i64 64
  store i32 %23, ptr %24, align 8
  %25 = getelementptr inbounds nuw i8, ptr %.8.val, i64 8
  %26 = load i64, ptr %25, align 8
  %.not = icmp eq i64 %26, -2
  br i1 %.not, label %29, label %27

27:                                               ; preds = %22
  %28 = getelementptr inbounds nuw i8, ptr %3, i64 192
  store i64 %26, ptr %28, align 8
  br label %29

29:                                               ; preds = %27, %22
  %30 = getelementptr inbounds nuw i8, ptr %.8.val, i64 16
  %31 = load i32, ptr %30, align 8
  %32 = getelementptr inbounds nuw i8, ptr %3, i64 392
  store i32 %31, ptr %32, align 8
  %33 = getelementptr inbounds nuw i8, ptr %.8.val, i64 20
  %34 = load i32, ptr %33, align 4
  %35 = getelementptr inbounds nuw i8, ptr %3, i64 448
  store i32 %34, ptr %35, align 8
  %36 = getelementptr inbounds nuw i8, ptr %.8.val, i64 24
  %37 = load i64, ptr %36, align 8
  %38 = getelementptr inbounds nuw i8, ptr %4, i64 464
  store i64 %37, ptr %38, align 8
  %39 = load ptr, ptr %0, align 8
  %40 = getelementptr inbounds nuw i8, ptr %39, i64 168
  %41 = load i16, ptr %40, align 8
  %42 = getelementptr inbounds nuw i8, ptr %3, i64 908
  store i16 %41, ptr %42, align 4
  %43 = getelementptr inbounds nuw i8, ptr %.8.val, i64 32
  %44 = load i64, ptr %43, align 8
  %45 = getelementptr inbounds nuw i8, ptr %3, i64 944
  store i64 %44, ptr %45, align 8
  %46 = getelementptr inbounds nuw i8, ptr %3, i64 216
  store ptr %4, ptr %46, align 8
  %47 = getelementptr inbounds nuw i8, ptr %0, i64 56
  %48 = load ptr, ptr %47, align 8
  %49 = call i32 @jobacct_storage_g_job_suspend(ptr noundef %48, ptr noundef nonnull %3) #10
  %.not24 = icmp eq i32 %49, 0
  br i1 %.not24, label %54, label %50

50:                                               ; preds = %29
  %51 = tail call ptr @__errno_location() #12
  %52 = load i32, ptr %51, align 4
  %53 = icmp eq i32 %52, 740
  %spec.select = select i1 %53, i32 0, i32 %49
  br label %54

54:                                               ; preds = %50, %29
  %.1 = phi i32 [ 0, %29 ], [ %spec.select, %50 ]
  %55 = getelementptr inbounds nuw i8, ptr %3, i64 1120
  call void @slurm_xfree(ptr noundef nonnull %55) #10
  br label %56

56:                                               ; preds = %54, %9
  %.020 = phi i32 [ %.1, %54 ], [ 2002, %9 ]
  %.0 = phi ptr [ null, %54 ], [ @.str.99, %9 ]
  %57 = load ptr, ptr %0, align 8
  %58 = call ptr @slurm_persist_make_rc_msg(ptr noundef %57, i32 noundef %.020, ptr noundef %.0, i16 noundef zeroext 1427) #10
  store ptr %58, ptr %1, align 8
  call void @llvm.lifetime.end.p0(i64 528, ptr nonnull %4) #10
  call void @llvm.lifetime.end.p0(i64 1152, ptr nonnull %3) #10
  ret void
}